
lab2.elf:     file format elf32-littlearm


Disassembly of section .text:

08000000 <vectors>:
 8000000:	20001008 	andcs	r1, r0, r8
 8000004:	080000d1 	stmdaeq	r0, {r0, r4, r6, r7}
 8000008:	08000181 	stmdaeq	r0, {r0, r7, r8}
 800000c:	08000181 	stmdaeq	r0, {r0, r7, r8}
 8000010:	08000181 	stmdaeq	r0, {r0, r7, r8}
 8000014:	08000181 	stmdaeq	r0, {r0, r7, r8}
 8000018:	08000181 	stmdaeq	r0, {r0, r7, r8}

0800001c <main>:
 800001c:	b480      	push	{r7}
 800001e:	b083      	sub	sp, #12
 8000020:	af00      	add	r7, sp, #0
 8000022:	f241 0318 	movw	r3, #4120	; 0x1018
 8000026:	f2c4 0302 	movt	r3, #16386	; 0x4002
 800002a:	f241 0218 	movw	r2, #4120	; 0x1018
 800002e:	f2c4 0202 	movt	r2, #16386	; 0x4002
 8000032:	6812      	ldr	r2, [r2, #0]
 8000034:	f042 0204 	orr.w	r2, r2, #4
 8000038:	601a      	str	r2, [r3, #0]
 800003a:	f640 0304 	movw	r3, #2052	; 0x804
 800003e:	f2c4 0301 	movt	r3, #16385	; 0x4001
 8000042:	f640 0204 	movw	r2, #2052	; 0x804
 8000046:	f2c4 0201 	movt	r2, #16385	; 0x4001
 800004a:	6812      	ldr	r2, [r2, #0]
 800004c:	f422 0270 	bic.w	r2, r2, #15728640	; 0xf00000
 8000050:	601a      	str	r2, [r3, #0]
 8000052:	f640 0304 	movw	r3, #2052	; 0x804
 8000056:	f2c4 0301 	movt	r3, #16385	; 0x4001
 800005a:	f640 0204 	movw	r2, #2052	; 0x804
 800005e:	f2c4 0201 	movt	r2, #16385	; 0x4001
 8000062:	6812      	ldr	r2, [r2, #0]
 8000064:	f442 1200 	orr.w	r2, r2, #2097152	; 0x200000
 8000068:	601a      	str	r2, [r3, #0]
 800006a:	f640 030c 	movw	r3, #2060	; 0x80c
 800006e:	f2c4 0301 	movt	r3, #16385	; 0x4001
 8000072:	f640 020c 	movw	r2, #2060	; 0x80c
 8000076:	f2c4 0201 	movt	r2, #16385	; 0x4001
 800007a:	6812      	ldr	r2, [r2, #0]
 800007c:	f442 5200 	orr.w	r2, r2, #8192	; 0x2000
 8000080:	601a      	str	r2, [r3, #0]
 8000082:	f04f 0300 	mov.w	r3, #0
 8000086:	607b      	str	r3, [r7, #4]
 8000088:	e003      	b.n	8000092 <main+0x76>
 800008a:	687b      	ldr	r3, [r7, #4]
 800008c:	f103 0301 	add.w	r3, r3, #1
 8000090:	607b      	str	r3, [r7, #4]
 8000092:	687a      	ldr	r2, [r7, #4]
 8000094:	f241 3387 	movw	r3, #4999	; 0x1387
 8000098:	429a      	cmp	r2, r3
 800009a:	ddf6      	ble.n	800008a <main+0x6e>
 800009c:	f640 030c 	movw	r3, #2060	; 0x80c
 80000a0:	f2c4 0301 	movt	r3, #16385	; 0x4001
 80000a4:	f640 020c 	movw	r2, #2060	; 0x80c
 80000a8:	f2c4 0201 	movt	r2, #16385	; 0x4001
 80000ac:	6812      	ldr	r2, [r2, #0]
 80000ae:	f422 5200 	bic.w	r2, r2, #8192	; 0x2000
 80000b2:	601a      	str	r2, [r3, #0]
 80000b4:	f04f 0300 	mov.w	r3, #0
 80000b8:	607b      	str	r3, [r7, #4]
 80000ba:	e003      	b.n	80000c4 <main+0xa8>
 80000bc:	687b      	ldr	r3, [r7, #4]
 80000be:	f103 0301 	add.w	r3, r3, #1
 80000c2:	607b      	str	r3, [r7, #4]
 80000c4:	687a      	ldr	r2, [r7, #4]
 80000c6:	f241 3387 	movw	r3, #4999	; 0x1387
 80000ca:	429a      	cmp	r2, r3
 80000cc:	ddf6      	ble.n	80000bc <main+0xa0>
 80000ce:	e7cc      	b.n	800006a <main+0x4e>

080000d0 <Reset_Handler>:
 80000d0:	b580      	push	{r7, lr}
 80000d2:	b086      	sub	sp, #24
 80000d4:	af00      	add	r7, sp, #0
 80000d6:	f240 0204 	movw	r2, #4
 80000da:	f2c2 0200 	movt	r2, #8192	; 0x2000
 80000de:	f240 0300 	movw	r3, #0
 80000e2:	f2c2 0300 	movt	r3, #8192	; 0x2000
 80000e6:	1ad3      	subs	r3, r2, r3
 80000e8:	60bb      	str	r3, [r7, #8]
 80000ea:	f240 1390 	movw	r3, #400	; 0x190
 80000ee:	f6c0 0300 	movt	r3, #2048	; 0x800
 80000f2:	617b      	str	r3, [r7, #20]
 80000f4:	f240 0300 	movw	r3, #0
 80000f8:	f2c2 0300 	movt	r3, #8192	; 0x2000
 80000fc:	613b      	str	r3, [r7, #16]
 80000fe:	f04f 0300 	mov.w	r3, #0
 8000102:	60fb      	str	r3, [r7, #12]
 8000104:	e00f      	b.n	8000126 <Reset_Handler+0x56>
 8000106:	697b      	ldr	r3, [r7, #20]
 8000108:	781a      	ldrb	r2, [r3, #0]
 800010a:	693b      	ldr	r3, [r7, #16]
 800010c:	701a      	strb	r2, [r3, #0]
 800010e:	693b      	ldr	r3, [r7, #16]
 8000110:	f103 0301 	add.w	r3, r3, #1
 8000114:	613b      	str	r3, [r7, #16]
 8000116:	697b      	ldr	r3, [r7, #20]
 8000118:	f103 0301 	add.w	r3, r3, #1
 800011c:	617b      	str	r3, [r7, #20]
 800011e:	68fb      	ldr	r3, [r7, #12]
 8000120:	f103 0301 	add.w	r3, r3, #1
 8000124:	60fb      	str	r3, [r7, #12]
 8000126:	68fa      	ldr	r2, [r7, #12]
 8000128:	68bb      	ldr	r3, [r7, #8]
 800012a:	429a      	cmp	r2, r3
 800012c:	d3eb      	bcc.n	8000106 <Reset_Handler+0x36>
 800012e:	f240 0204 	movw	r2, #4
 8000132:	f2c2 0200 	movt	r2, #8192	; 0x2000
 8000136:	f240 0304 	movw	r3, #4
 800013a:	f2c2 0300 	movt	r3, #8192	; 0x2000
 800013e:	1ad3      	subs	r3, r2, r3
 8000140:	607b      	str	r3, [r7, #4]
 8000142:	f240 0304 	movw	r3, #4
 8000146:	f2c2 0300 	movt	r3, #8192	; 0x2000
 800014a:	613b      	str	r3, [r7, #16]
 800014c:	f04f 0300 	mov.w	r3, #0
 8000150:	60fb      	str	r3, [r7, #12]
 8000152:	e00b      	b.n	800016c <Reset_Handler+0x9c>
 8000154:	693b      	ldr	r3, [r7, #16]
 8000156:	f04f 0200 	mov.w	r2, #0
 800015a:	701a      	strb	r2, [r3, #0]
 800015c:	693b      	ldr	r3, [r7, #16]
 800015e:	f103 0301 	add.w	r3, r3, #1
 8000162:	613b      	str	r3, [r7, #16]
 8000164:	68fb      	ldr	r3, [r7, #12]
 8000166:	f103 0301 	add.w	r3, r3, #1
 800016a:	60fb      	str	r3, [r7, #12]
 800016c:	68fa      	ldr	r2, [r7, #12]
 800016e:	687b      	ldr	r3, [r7, #4]
 8000170:	429a      	cmp	r2, r3
 8000172:	d3ef      	bcc.n	8000154 <Reset_Handler+0x84>
 8000174:	f7ff ff52 	bl	800001c <main>
 8000178:	f107 0718 	add.w	r7, r7, #24
 800017c:	46bd      	mov	sp, r7
 800017e:	bd80      	pop	{r7, pc}

08000180 <Default_Handler>:
 8000180:	b580      	push	{r7, lr}
 8000182:	af00      	add	r7, sp, #0
 8000184:	f7ff ffa4 	bl	80000d0 <Reset_Handler>
 8000188:	bd80      	pop	{r7, pc}
 800018a:	bf00      	nop

0800018c <const_var>:
 800018c:	00030201 	andeq	r0, r3, r1, lsl #4
